target datalayout = "e-m:e-p270:32:32-p271:32:32-p272:64:64-i64:64-i128:128-f80:128-n8:16:32:64-S128"
target triple = "x86_64-pc-linux-gnu"

%union.pthread_mutex_t = type { %struct.__pthread_mutex_s }
%struct.__pthread_mutex_s = type { i32, i32, i32, i32, i32, i16, i16, %struct.__pthread_internal_list }
%struct.__pthread_internal_list = type { ptr, ptr }
%struct.thread_status_t = type { ptr, i64, %union.pthread_mutex_t, %union.pthread_cond_t, [24 x i8] }
%union.pthread_cond_t = type { %struct.__pthread_cond_s }
%struct.__pthread_cond_s = type { %union.__atomic_wide_counter, %union.__atomic_wide_counter, [2 x i32], [2 x i32], i32, i32, [2 x i32] }
%union.__atomic_wide_counter = type { i64 }
%struct.rlimit = type { i64, i64 }

@blas_server_avail = global i32 0, align 128
@blas_threads = internal global [16 x i64] zeroinitializer, align 16
@server_lock = internal global %union.pthread_mutex_t zeroinitializer, align 8
@thread_timeout = internal global i32 268435456, align 4
@blas_num_threads = external global i32, align 4
@thread_status = internal global [16 x %struct.thread_status_t] zeroinitializer, align 128
@stderr = external global ptr, align 8
@.str = private unnamed_addr constant [75 x i8] c"OpenBLAS blas_thread_init: pthread_create failed for thread %ld of %d: %s\0A\00", align 1
@.str.1 = private unnamed_addr constant [111 x i8] c"OpenBLAS blas_thread_init: ensure that your address space and process count limits are big enough (ulimit -a)\0A\00", align 1
@.str.2 = private unnamed_addr constant [102 x i8] c"OpenBLAS blas_thread_init: or set a smaller OPENBLAS_NUM_THREADS to fit into what you have available\0A\00", align 1
@.str.3 = private unnamed_addr constant [62 x i8] c"OpenBLAS blas_thread_init: RLIMIT_NPROC %ld current, %ld max\0A\00", align 1
@.str.4 = private unnamed_addr constant [44 x i8] c"OpenBLAS blas_thread_init: calling exit(3)\0A\00", align 1
@blas_cpu_number = external global i32, align 4
@blas_thread_buffer = internal global [16 x ptr] zeroinitializer, align 16

; Function Attrs: nounwind uwtable
define internal void @adjust_thread_buffers() #0 {
  %1 = alloca i32, align 4
  call void @llvm.lifetime.start.p0(i64 4, ptr %1) #8
  store i32 0, ptr %1, align 4, !tbaa !3
  store i32 0, ptr %1, align 4, !tbaa !3
  br label %2

2:                                                ; preds = %18, %0
  %3 = load i32, ptr %1, align 4, !tbaa !3
  %4 = load i32, ptr @blas_cpu_number, align 4, !tbaa !3
  %5 = icmp slt i32 %3, %4
  br i1 %5, label %6, label %21

6:                                                ; preds = %2
  %7 = load i32, ptr %1, align 4, !tbaa !3
  %8 = sext i32 %7 to i64
  %9 = getelementptr inbounds [16 x ptr], ptr @blas_thread_buffer, i64 0, i64 %8
  %10 = load ptr, ptr %9, align 8, !tbaa !9
  %11 = icmp eq ptr %10, null
  br i1 %11, label %12, label %17

12:                                               ; preds = %6
  %13 = call ptr @blas_memory_alloc(i32 noundef 2)
  %14 = load i32, ptr %1, align 4, !tbaa !3
  %15 = sext i32 %14 to i64
  %16 = getelementptr inbounds [16 x ptr], ptr @blas_thread_buffer, i64 0, i64 %15
  store ptr %13, ptr %16, align 8, !tbaa !9
  br label %17

17:                                               ; preds = %12, %6
  br label %18

18:                                               ; preds = %17
  %19 = load i32, ptr %1, align 4, !tbaa !3
  %20 = add nsw i32 %19, 1
  store i32 %20, ptr %1, align 4, !tbaa !3
  br label %2, !llvm.loop !79

21:                                               ; preds = %2
  br label %22

22:                                               ; preds = %40, %21
  %23 = load i32, ptr %1, align 4, !tbaa !3
  %24 = icmp slt i32 %23, 16
  br i1 %24, label %25, label %43

25:                                               ; preds = %22
  %26 = load i32, ptr %1, align 4, !tbaa !3
  %27 = sext i32 %26 to i64
  %28 = getelementptr inbounds [16 x ptr], ptr @blas_thread_buffer, i64 0, i64 %27
  %29 = load ptr, ptr %28, align 8, !tbaa !9
  %30 = icmp ne ptr %29, null
  br i1 %30, label %31, label %39

31:                                               ; preds = %25
  %32 = load i32, ptr %1, align 4, !tbaa !3
  %33 = sext i32 %32 to i64
  %34 = getelementptr inbounds [16 x ptr], ptr @blas_thread_buffer, i64 0, i64 %33
  %35 = load ptr, ptr %34, align 8, !tbaa !9
  call void @blas_memory_free(ptr noundef %35)
  %36 = load i32, ptr %1, align 4, !tbaa !3
  %37 = sext i32 %36 to i64
  %38 = getelementptr inbounds [16 x ptr], ptr @blas_thread_buffer, i64 0, i64 %37
  store ptr null, ptr %38, align 8, !tbaa !9
  br label %39

39:                                               ; preds = %31, %25
  br label %40

40:                                               ; preds = %39
  %41 = load i32, ptr %1, align 4, !tbaa !3
  %42 = add nsw i32 %41, 1
  store i32 %42, ptr %1, align 4, !tbaa !3
  br label %22, !llvm.loop !80

43:                                               ; preds = %22
  call void @llvm.lifetime.end.p0(i64 4, ptr %1) #8
  ret void
}

; Function Attrs: nounwind uwtable
define i32 @blas_thread_init() #0 {
  %1 = alloca i32, align 4
  %2 = alloca i64, align 8
  %3 = alloca i32, align 4
  %4 = alloca i32, align 4
  %5 = alloca i32, align 4
  %6 = alloca ptr, align 8
  %7 = alloca %struct.rlimit, align 8
  %8 = alloca ptr, align 8
  call void @llvm.lifetime.start.p0(i64 8, ptr %2) #8
  call void @llvm.lifetime.start.p0(i64 4, ptr %3) #8
  call void @llvm.lifetime.start.p0(i64 4, ptr %4) #8
  %9 = load i32, ptr @blas_server_avail, align 128, !tbaa !3
  %10 = icmp ne i32 %9, 0
  br i1 %10, label %11, label %12

11:                                               ; preds = %0
  store i32 0, ptr %1, align 4
  store i32 1, ptr %5, align 4
  br label %97

12:                                               ; preds = %0
  %13 = call i32 @pthread_mutex_lock(ptr noundef @server_lock) #8
  call void @adjust_thread_buffers()
  %14 = load i32, ptr @blas_server_avail, align 128, !tbaa !3
  %15 = icmp ne i32 %14, 0
  br i1 %15, label %95, label %16

16:                                               ; preds = %12
  %17 = call i32 @openblas_thread_timeout()
  store i32 %17, ptr %4, align 4, !tbaa !3
  %18 = load i32, ptr %4, align 4, !tbaa !3
  %19 = icmp sgt i32 %18, 0
  br i1 %19, label %20, label %31

20:                                               ; preds = %16
  %21 = load i32, ptr %4, align 4, !tbaa !3
  %22 = icmp slt i32 %21, 4
  br i1 %22, label %23, label %24

23:                                               ; preds = %20
  store i32 4, ptr %4, align 4, !tbaa !3
  br label %24

24:                                               ; preds = %23, %20
  %25 = load i32, ptr %4, align 4, !tbaa !3
  %26 = icmp sgt i32 %25, 30
  br i1 %26, label %27, label %28

27:                                               ; preds = %24
  store i32 30, ptr %4, align 4, !tbaa !3
  br label %28

28:                                               ; preds = %27, %24
  %29 = load i32, ptr %4, align 4, !tbaa !3
  %30 = shl i32 1, %29
  store i32 %30, ptr @thread_timeout, align 4, !tbaa !3
  br label %31

31:                                               ; preds = %28, %16
  store i64 0, ptr %2, align 8, !tbaa !7
  br label %32

32:                                               ; preds = %91, %31
  %33 = load i64, ptr %2, align 8, !tbaa !7
  %34 = load i32, ptr @blas_num_threads, align 4, !tbaa !3
  %35 = sub nsw i32 %34, 1
  %36 = sext i32 %35 to i64
  %37 = icmp slt i64 %33, %36
  br i1 %37, label %38, label %94

38:                                               ; preds = %32
  %39 = load i64, ptr %2, align 8, !tbaa !7
  %40 = getelementptr inbounds [16 x %struct.thread_status_t], ptr @thread_status, i64 0, i64 %39
  %41 = getelementptr inbounds nuw %struct.thread_status_t, ptr %40, i32 0, i32 0
  store ptr null, ptr %6, align 8, !tbaa !11
  %42 = load i64, ptr %6, align 8
  store atomic volatile i64 %42, ptr %41 monotonic, align 128
  %43 = load i64, ptr %2, align 8, !tbaa !7
  %44 = getelementptr inbounds [16 x %struct.thread_status_t], ptr @thread_status, i64 0, i64 %43
  %45 = getelementptr inbounds nuw %struct.thread_status_t, ptr %44, i32 0, i32 1
  store volatile i64 4, ptr %45, align 8, !tbaa !13
  %46 = load i64, ptr %2, align 8, !tbaa !7
  %47 = getelementptr inbounds [16 x %struct.thread_status_t], ptr @thread_status, i64 0, i64 %46
  %48 = getelementptr inbounds nuw %struct.thread_status_t, ptr %47, i32 0, i32 2
  %49 = call i32 @pthread_mutex_init(ptr noundef %48, ptr noundef null) #8
  %50 = load i64, ptr %2, align 8, !tbaa !7
  %51 = getelementptr inbounds [16 x %struct.thread_status_t], ptr @thread_status, i64 0, i64 %50
  %52 = getelementptr inbounds nuw %struct.thread_status_t, ptr %51, i32 0, i32 3
  %53 = call i32 @pthread_cond_init(ptr noundef %52, ptr noundef null) #8
  %54 = load i64, ptr %2, align 8, !tbaa !7
  %55 = getelementptr inbounds [16 x i64], ptr @blas_threads, i64 0, i64 %54
  %56 = load i64, ptr %2, align 8, !tbaa !7
  %57 = inttoptr i64 %56 to ptr
  %58 = call i32 @pthread_create(ptr noundef %55, ptr noundef null, ptr noundef @blas_thread_server, ptr noundef %57) #8
  store i32 %58, ptr %3, align 4, !tbaa !3
  %59 = load i32, ptr %3, align 4, !tbaa !3
  %60 = icmp ne i32 %59, 0
  br i1 %60, label %61, label %90

61:                                               ; preds = %38
  call void @llvm.lifetime.start.p0(i64 16, ptr %7) #8
  call void @llvm.lifetime.start.p0(i64 8, ptr %8) #8
  %62 = load i32, ptr %3, align 4, !tbaa !3
  %63 = call ptr @strerror(i32 noundef %62) #8
  store ptr %63, ptr %8, align 8, !tbaa !15
  %64 = load ptr, ptr @stderr, align 8, !tbaa !17
  %65 = load i64, ptr %2, align 8, !tbaa !7
  %66 = add nsw i64 %65, 1
  %67 = load i32, ptr @blas_num_threads, align 4, !tbaa !3
  %68 = load ptr, ptr %8, align 8, !tbaa !15
  %69 = call i32 (ptr, ptr, ...) @fprintf(ptr noundef %64, ptr noundef @.str, i64 noundef %66, i32 noundef %67, ptr noundef %68) #8
  %70 = load ptr, ptr @stderr, align 8, !tbaa !17
  %71 = call i32 (ptr, ptr, ...) @fprintf(ptr noundef %70, ptr noundef @.str.1) #8
  %72 = load ptr, ptr @stderr, align 8, !tbaa !17
  %73 = call i32 (ptr, ptr, ...) @fprintf(ptr noundef %72, ptr noundef @.str.2) #8
  %74 = call i32 @getrlimit(i32 noundef 6, ptr noundef %7) #8
  %75 = icmp eq i32 0, %74
  br i1 %75, label %76, label %83

76:                                               ; preds = %61
  %77 = load ptr, ptr @stderr, align 8, !tbaa !17
  %78 = getelementptr inbounds nuw %struct.rlimit, ptr %7, i32 0, i32 0
  %79 = load i64, ptr %78, align 8, !tbaa !19
  %80 = getelementptr inbounds nuw %struct.rlimit, ptr %7, i32 0, i32 1
  %81 = load i64, ptr %80, align 8, !tbaa !21
  %82 = call i32 (ptr, ptr, ...) @fprintf(ptr noundef %77, ptr noundef @.str.3, i64 noundef %79, i64 noundef %81) #8
  br label %83

83:                                               ; preds = %76, %61
  %84 = call i32 @raise(i32 noundef 2) #8
  %85 = icmp ne i32 0, %84
  br i1 %85, label %86, label %89

86:                                               ; preds = %83
  %87 = load ptr, ptr @stderr, align 8, !tbaa !17
  %88 = call i32 (ptr, ptr, ...) @fprintf(ptr noundef %87, ptr noundef @.str.4) #8
  call void @exit(i32 noundef 1) #10
  unreachable

89:                                               ; preds = %83
  call void @llvm.lifetime.end.p0(i64 8, ptr %8) #8
  call void @llvm.lifetime.end.p0(i64 16, ptr %7) #8
  br label %90

90:                                               ; preds = %89, %38
  br label %91

91:                                               ; preds = %90
  %92 = load i64, ptr %2, align 8, !tbaa !7
  %93 = add nsw i64 %92, 1
  store i64 %93, ptr %2, align 8, !tbaa !7
  br label %32, !llvm.loop !22

94:                                               ; preds = %32
  store i32 1, ptr @blas_server_avail, align 128, !tbaa !3
  br label %95

95:                                               ; preds = %94, %12
  %96 = call i32 @pthread_mutex_unlock(ptr noundef @server_lock) #8
  store i32 0, ptr %1, align 4
  store i32 1, ptr %5, align 4
  br label %97

97:                                               ; preds = %95, %11
  call void @llvm.lifetime.end.p0(i64 4, ptr %4) #8
  call void @llvm.lifetime.end.p0(i64 4, ptr %3) #8
  call void @llvm.lifetime.end.p0(i64 8, ptr %2) #8
  %98 = load i32, ptr %1, align 4
  ret i32 %98
}