; Function Attrs: nounwind uwtable
define noundef i32 @blas_thread_init() local_unnamed_addr #0 {
  %1 = alloca %struct.rlimit, align 8
  %2 = load i32, ptr @blas_server_avail, align 128, !tbaa !3
  %.not = icmp eq i32 %2, 0
  br i1 %.not, label %3, label %73

3:                                                ; preds = %0
  %4 = tail call i32 @pthread_mutex_lock(ptr noundef nonnull @server_lock) #10
  %5 = load i32, ptr @blas_cpu_number, align 4, !tbaa !3
  %6 = icmp sgt i32 %5, 0
  br i1 %6, label %.lr.ph.i, label %.lr.ph12.i.preheader

.lr.ph12.i.preheader:                             ; preds = %.preheader.i, %3
  %indvars.iv14.i.ph = phi i64 [ 0, %3 ], [ %indvars.iv.next.i, %.preheader.i ]
  br label %.lr.ph12.i

.preheader.i:                                     ; preds = %14
  %7 = icmp samesign ult i64 %indvars.iv.i, 15
  br i1 %7, label %.lr.ph12.i.preheader, label %adjust_thread_buffers.exit

.lr.ph.i:                                         ; preds = %3, %14
  %8 = phi i32 [ %15, %14 ], [ %5, %3 ]
  %indvars.iv.i = phi i64 [ %indvars.iv.next.i, %14 ], [ 0, %3 ]
  %9 = getelementptr inbounds nuw [16 x ptr], ptr @blas_thread_buffer, i64 0, i64 %indvars.iv.i
  %10 = load ptr, ptr %9, align 8, !tbaa !9
  %11 = icmp eq ptr %10, null
  br i1 %11, label %12, label %14

12:                                               ; preds = %.lr.ph.i
  %13 = tail call ptr @blas_memory_alloc(i32 noundef 2) #10
  store ptr %13, ptr %9, align 8, !tbaa !9
  %.pre.i = load i32, ptr @blas_cpu_number, align 4, !tbaa !3
  br label %14

14:                                               ; preds = %12, %.lr.ph.i
  %15 = phi i32 [ %8, %.lr.ph.i ], [ %.pre.i, %12 ]
  %indvars.iv.next.i = add nuw nsw i64 %indvars.iv.i, 1
  %16 = sext i32 %15 to i64
  %17 = icmp slt i64 %indvars.iv.next.i, %16
  br i1 %17, label %.lr.ph.i, label %.preheader.i, !llvm.loop !11

.lr.ph12.i:                                       ; preds = %.lr.ph12.i.preheader, %21
  %indvars.iv14.i = phi i64 [ %indvars.iv.next15.i, %21 ], [ %indvars.iv14.i.ph, %.lr.ph12.i.preheader ]
  %18 = getelementptr inbounds nuw [16 x ptr], ptr @blas_thread_buffer, i64 0, i64 %indvars.iv14.i
  %19 = load ptr, ptr %18, align 8, !tbaa !9
  %.not.i = icmp eq ptr %19, null
  br i1 %.not.i, label %21, label %20

20:                                               ; preds = %.lr.ph12.i
  tail call void @blas_memory_free(ptr noundef nonnull %19) #10
  store ptr null, ptr %18, align 8, !tbaa !9
  br label %21

21:                                               ; preds = %20, %.lr.ph12.i
  %indvars.iv.next15.i = add nuw nsw i64 %indvars.iv14.i, 1
  %exitcond.not.i = icmp eq i64 %indvars.iv.next15.i, 16
  br i1 %exitcond.not.i, label %adjust_thread_buffers.exit, label %.lr.ph12.i, !llvm.loop !13

adjust_thread_buffers.exit:                       ; preds = %21, %.preheader.i
  %22 = load i32, ptr @blas_server_avail, align 128, !tbaa !3
  %.not20 = icmp eq i32 %22, 0
  br i1 %.not20, label %23, label %71

23:                                               ; preds = %adjust_thread_buffers.exit
  %24 = tail call i32 @openblas_thread_timeout() #10
  %25 = icmp sgt i32 %24, 0
  br i1 %25, label %26, label %29

26:                                               ; preds = %23
  %27 = tail call i32 @llvm.umax.i32(i32 %24, i32 4)
  %spec.store.select1 = tail call i32 @llvm.umin.i32(i32 %27, i32 30)
  %28 = shl nuw nsw i32 1, %spec.store.select1
  store i32 %28, ptr @thread_timeout, align 4, !tbaa !3
  br label %29

29:                                               ; preds = %26, %23
  %30 = load i32, ptr @blas_num_threads, align 4, !tbaa !3
  %31 = icmp sgt i32 %30, 1
  br i1 %31, label %.lr.ph, label %._crit_edge

.lr.ph:                                           ; preds = %29
  %32 = getelementptr inbounds nuw i8, ptr %1, i64 8
  br label %33

33:                                               ; preds = %.lr.ph, %66
  %.01823 = phi i64 [ 0, %.lr.ph ], [ %.pre-phi, %66 ]
  %34 = getelementptr inbounds nuw [16 x %struct.thread_status_t], ptr @thread_status, i64 0, i64 %.01823
  store atomic volatile i64 0, ptr %34 monotonic, align 128
  %35 = getelementptr inbounds nuw i8, ptr %34, i64 8
  store volatile i64 4, ptr %35, align 8, !tbaa !14
  %36 = getelementptr inbounds nuw i8, ptr %34, i64 16
  %37 = call i32 @pthread_mutex_init(ptr noundef nonnull %36, ptr noundef null) #10
  %38 = getelementptr inbounds nuw i8, ptr %34, i64 56
  %39 = call i32 @pthread_cond_init(ptr noundef nonnull %38, ptr noundef null) #10
  %40 = getelementptr inbounds nuw [16 x i64], ptr @blas_threads, i64 0, i64 %.01823
  %41 = inttoptr i64 %.01823 to ptr
  %42 = call i32 @pthread_create(ptr noundef nonnull %40, ptr noundef null, ptr noundef nonnull @blas_thread_server, ptr noundef %41) #10
  %.not21 = icmp eq i32 %42, 0
  br i1 %.not21, label %._crit_edge24, label %43

._crit_edge24:                                    ; preds = %33
  %.pre = add nuw nsw i64 %.01823, 1
  br label %66

43:                                               ; preds = %33
  call void @llvm.lifetime.start.p0(i64 16, ptr nonnull %1) #10
  %44 = call ptr @strerror(i32 noundef %42) #10
  %45 = load ptr, ptr @stderr, align 8, !tbaa !17
  %46 = add nuw nsw i64 %.01823, 1
  %47 = load i32, ptr @blas_num_threads, align 4, !tbaa !3
  %48 = call i32 (ptr, ptr, ...) @fprintf(ptr noundef %45, ptr noundef nonnull @.str, i64 noundef %46, i32 noundef %47, ptr noundef %44) #12
  %49 = load ptr, ptr @stderr, align 8, !tbaa !17
  %50 = call i64 @fwrite(ptr nonnull @.str.1, i64 110, i64 1, ptr %49) #13
  %51 = load ptr, ptr @stderr, align 8, !tbaa !17
  %52 = call i64 @fwrite(ptr nonnull @.str.2, i64 101, i64 1, ptr %51) #13
  %53 = call i32 @getrlimit(i32 noundef 6, ptr noundef nonnull %1) #10
  %54 = icmp eq i32 %53, 0
  br i1 %54, label %55, label %60

55:                                               ; preds = %43
  %56 = load ptr, ptr @stderr, align 8, !tbaa !17
  %57 = load i64, ptr %1, align 8, !tbaa !19
  %58 = load i64, ptr %32, align 8, !tbaa !21
  %59 = call i32 (ptr, ptr, ...) @fprintf(ptr noundef %56, ptr noundef nonnull @.str.3, i64 noundef %57, i64 noundef %58) #12
  br label %60

60:                                               ; preds = %55, %43
  %61 = call i32 @raise(i32 noundef 2) #10
  %.not22 = icmp eq i32 %61, 0
  br i1 %.not22, label %65, label %62

62:                                               ; preds = %60
  %63 = load ptr, ptr @stderr, align 8, !tbaa !17
  %64 = call i64 @fwrite(ptr nonnull @.str.4, i64 43, i64 1, ptr %63) #13
  call void @exit(i32 noundef 1) #14
  unreachable

65:                                               ; preds = %60
  call void @llvm.lifetime.end.p0(i64 16, ptr nonnull %1) #10
  br label %66

66:                                               ; preds = %._crit_edge24, %65
  %.pre-phi = phi i64 [ %.pre, %._crit_edge24 ], [ %46, %65 ]
  %67 = load i32, ptr @blas_num_threads, align 4, !tbaa !3
  %68 = add nsw i32 %67, -1
  %69 = sext i32 %68 to i64
  %70 = icmp slt i64 %.pre-phi, %69
  br i1 %70, label %33, label %._crit_edge, !llvm.loop !22

._crit_edge:                                      ; preds = %66, %29
  store i32 1, ptr @blas_server_avail, align 128, !tbaa !3
  br label %71

71:                                               ; preds = %._crit_edge, %adjust_thread_buffers.exit
  %72 = call i32 @pthread_mutex_unlock(ptr noundef nonnull @server_lock) #10
  br label %73

73:                                               ; preds = %0, %71
  ret i32 0
}